target datalayout = "e-m:e-p270:32:32-p271:32:32-p272:64:64-i64:64-i128:128-f80:128-n8:16:32:64-S128"
target triple = "x86_64-pc-linux-gnu"

; Function Attrs: nounwind uwtable
define i32 @mriStep_SetAdaptController(ptr noundef %0, ptr noundef %1) #0 {
  %3 = alloca i32, align 4
  %4 = alloca ptr, align 8
  %5 = alloca ptr, align 8
  %6 = alloca i32, align 4
  %7 = alloca i32, align 4
  %8 = alloca ptr, align 8
  store ptr %0, ptr %4, align 8, !tbaa !11
  store ptr %1, ptr %5, align 8, !tbaa !57
  call void @llvm.lifetime.start.p0(i64 4, ptr %6) #4
  %9 = load ptr, ptr %5, align 8, !tbaa !57
  %10 = call i32 @SUNAdaptController_GetType(ptr noundef %9)
  store i32 %10, ptr %6, align 4, !tbaa !9
  %11 = load i32, ptr %6, align 4, !tbaa !9
  %12 = icmp ne i32 %11, 2
  br i1 %12, label %13, label %17

13:                                               ; preds = %2
  %14 = load ptr, ptr %4, align 8, !tbaa !11
  %15 = load ptr, ptr %5, align 8, !tbaa !57
  %16 = call i32 @arkReplaceAdaptController(ptr noundef %14, ptr noundef %15, i32 noundef 0)
  store i32 %16, ptr %3, align 4
  store i32 1, ptr %7, align 4
  br label %24

17:                                               ; preds = %2
  call void @llvm.lifetime.start.p0(i64 8, ptr %8) #4
  %18 = load ptr, ptr %4, align 8, !tbaa !11
  %19 = load ptr, ptr %5, align 8, !tbaa !57
  %20 = call ptr @SUNAdaptController_MRIStep(ptr noundef %18, ptr noundef %19)
  store ptr %20, ptr %8, align 8, !tbaa !57
  %21 = load ptr, ptr %4, align 8, !tbaa !11
  %22 = load ptr, ptr %8, align 8, !tbaa !57
  %23 = call i32 @arkReplaceAdaptController(ptr noundef %21, ptr noundef %22, i32 noundef 1)
  store i32 %23, ptr %3, align 4
  store i32 1, ptr %7, align 4
  call void @llvm.lifetime.end.p0(i64 8, ptr %8) #4
  br label %24

24:                                               ; preds = %17, %13
  call void @llvm.lifetime.end.p0(i64 4, ptr %6) #4
  %25 = load i32, ptr %3, align 4
  ret i32 %25
}