; Function Attrs: nounwind uwtable
define i32 @mriStep_SetAdaptController(ptr noundef %0, ptr noundef %1) local_unnamed_addr #0 {
  %3 = tail call i32 @SUNAdaptController_GetType(ptr noundef %1) #5
  %.not = icmp eq i32 %3, 2
  br i1 %.not, label %6, label %4

4:                                                ; preds = %2
  %5 = tail call i32 @arkReplaceAdaptController(ptr noundef %0, ptr noundef %1, i32 noundef 0) #5
  br label %9

6:                                                ; preds = %2
  %7 = tail call ptr @SUNAdaptController_MRIStep(ptr noundef %0, ptr noundef %1) #5
  %8 = tail call i32 @arkReplaceAdaptController(ptr noundef %0, ptr noundef %7, i32 noundef 1) #5
  br label %9

9:                                                ; preds = %6, %4
  %.0 = phi i32 [ %5, %4 ], [ %8, %6 ]
  ret i32 %.0
}